; Function Attrs: mustprogress uwtable
define internal void @_ZN12_GLOBAL__N_148HyperscanArgChecks_hs_free_database_garbage_Test8TestBodyEv(ptr nonnull readnone align 8 captures(none) %0) unnamed_addr #7 align 2 personality ptr @__gxx_personality_v0 {
  %2 = alloca i32, align 4
  %3 = alloca %"class.testing::AssertionResult", align 8
  %4 = alloca i32, align 4
  %5 = alloca %"class.testing::Message", align 8
  %6 = alloca %"class.testing::internal::AssertHelper", align 8
  call void @llvm.lifetime.start.p0(i64 4, ptr nonnull %2) #27
  %7 = tail call i32 @hs_free_database(ptr noundef nonnull @_ZL7garbage)
  store i32 %7, ptr %2, align 4
  call void @llvm.lifetime.start.p0(i64 16, ptr nonnull %3) #27
  call void @llvm.lifetime.start.p0(i64 4, ptr nonnull %4) #27
  store i32 -1, ptr %4, align 4
  call void @_ZN7testing8internal11CmpHelperEQIiiEENS_15AssertionResultEPKcS4_RKT_RKT0_(ptr dead_on_unwind nonnull writable sret(%"class.testing::AssertionResult") align 8 %3, ptr noundef nonnull @.str.324, ptr noundef nonnull @.str.302, ptr noundef nonnull align 4 dereferenceable(4) %4, ptr noundef nonnull align 4 dereferenceable(4) %2)
  call void @llvm.lifetime.end.p0(i64 4, ptr nonnull %4) #27
  %8 = load i8, ptr %3, align 8, !range !14, !noundef !15
  %9 = trunc nuw i8 %8 to i1
  br i1 %9, label %40, label %10

10:                                               ; preds = %1
  call void @llvm.lifetime.start.p0(i64 8, ptr nonnull %5) #27
  invoke void @_ZN7testing7MessageC1Ev(ptr noundef nonnull align 8 dereferenceable(8) %5)
          to label %11 unwind label %32

11:                                               ; preds = %10
  call void @llvm.lifetime.start.p0(i64 8, ptr nonnull %6) #27
  %12 = getelementptr inbounds nuw i8, ptr %3, i64 8
  %13 = load ptr, ptr %12, align 8
  %.not.i.i = icmp eq ptr %13, null
  br i1 %.not.i.i, label %_ZNK7testing15AssertionResult15failure_messageEv.exit, label %14

14:                                               ; preds = %11
  %15 = load ptr, ptr %13, align 8
  br label %_ZNK7testing15AssertionResult15failure_messageEv.exit

_ZNK7testing15AssertionResult15failure_messageEv.exit: ; preds = %14, %11
  %16 = phi ptr [ %15, %14 ], [ @.str.292, %11 ]
  invoke void @_ZN7testing8internal12AssertHelperC1ENS_14TestPartResult4TypeEPKciS5_(ptr noundef nonnull align 8 dereferenceable(8) %6, i32 noundef 2, ptr noundef nonnull @.str.286, i32 noundef 2258, ptr noundef %16)
          to label %17 unwind label %34

17:                                               ; preds = %_ZNK7testing15AssertionResult15failure_messageEv.exit
  invoke void @_ZNK7testing8internal12AssertHelperaSERKNS_7MessageE(ptr noundef nonnull align 8 dereferenceable(8) %6, ptr noundef nonnull align 8 dereferenceable(8) %5)
          to label %18 unwind label %36

18:                                               ; preds = %17
  call void @_ZN7testing8internal12AssertHelperD1Ev(ptr noundef nonnull align 8 dereferenceable(8) %6) #27
  call void @llvm.lifetime.end.p0(i64 8, ptr nonnull %6) #27
  %19 = load ptr, ptr %5, align 8
  %.not.i.i.i = icmp eq ptr %19, null
  br i1 %.not.i.i.i, label %_ZN7testing7MessageD2Ev.exit, label %20

20:                                               ; preds = %18
  %21 = invoke noundef zeroext i1 @_ZN7testing8internal6IsTrueEb(i1 noundef zeroext true)
          to label %.noexc.i.i unwind label %29

.noexc.i.i:                                       ; preds = %20
  br i1 %21, label %22, label %_ZN7testing7MessageD2Ev.exit

22:                                               ; preds = %.noexc.i.i
  %23 = load ptr, ptr %5, align 8
  %24 = icmp eq ptr %23, null
  br i1 %24, label %_ZN7testing7MessageD2Ev.exit, label %25

25:                                               ; preds = %22
  %26 = load ptr, ptr %23, align 8
  %27 = getelementptr inbounds nuw i8, ptr %26, i64 8
  %28 = load ptr, ptr %27, align 8
  call void %28(ptr noundef nonnull align 8 dereferenceable(128) %23) #27
  br label %_ZN7testing7MessageD2Ev.exit

29:                                               ; preds = %20
  %30 = landingpad { ptr, i32 }
          catch ptr null
  %31 = extractvalue { ptr, i32 } %30, 0
  call void @__clang_call_terminate(ptr %31) #28
  unreachable

_ZN7testing7MessageD2Ev.exit:                     ; preds = %.noexc.i.i, %22, %25, %18
  call void @llvm.lifetime.end.p0(i64 8, ptr nonnull %5) #27
  br label %40

32:                                               ; preds = %10
  %33 = landingpad { ptr, i32 }
          cleanup
  br label %39

34:                                               ; preds = %_ZNK7testing15AssertionResult15failure_messageEv.exit
  %35 = landingpad { ptr, i32 }
          cleanup
  br label %38

36:                                               ; preds = %17
  %37 = landingpad { ptr, i32 }
          cleanup
  call void @_ZN7testing8internal12AssertHelperD1Ev(ptr noundef nonnull align 8 dereferenceable(8) %6) #27
  br label %38

38:                                               ; preds = %36, %34
  %.pn = phi { ptr, i32 } [ %37, %36 ], [ %35, %34 ]
  call void @llvm.lifetime.end.p0(i64 8, ptr nonnull %6) #27
  call void @_ZN7testing7MessageD2Ev(ptr noundef nonnull align 8 dereferenceable(8) %5) #27
  br label %39

39:                                               ; preds = %38, %32
  %.pn.pn = phi { ptr, i32 } [ %.pn, %38 ], [ %33, %32 ]
  call void @llvm.lifetime.end.p0(i64 8, ptr nonnull %5) #27
  call void @_ZN7testing15AssertionResultD2Ev(ptr noundef nonnull align 8 dereferenceable(16) %3) #27
  call void @llvm.lifetime.end.p0(i64 16, ptr nonnull %3) #27
  call void @llvm.lifetime.end.p0(i64 4, ptr nonnull %2) #27
  resume { ptr, i32 } %.pn.pn

40:                                               ; preds = %1, %_ZN7testing7MessageD2Ev.exit
  %41 = getelementptr inbounds nuw i8, ptr %3, i64 8
  %42 = load ptr, ptr %41, align 8
  %.not.i.i.i7 = icmp eq ptr %42, null
  br i1 %.not.i.i.i7, label %_ZN7testing15AssertionResultD2Ev.exit, label %43

43:                                               ; preds = %40
  %44 = invoke noundef zeroext i1 @_ZN7testing8internal6IsTrueEb(i1 noundef zeroext true)
          to label %.noexc.i.i8 unwind label %55

.noexc.i.i8:                                      ; preds = %43
  br i1 %44, label %45, label %_ZN7testing15AssertionResultD2Ev.exit

45:                                               ; preds = %.noexc.i.i8
  %46 = load ptr, ptr %41, align 8
  %47 = icmp eq ptr %46, null
  br i1 %47, label %_ZN7testing15AssertionResultD2Ev.exit, label %48

48:                                               ; preds = %45
  %49 = load ptr, ptr %46, align 8
  %50 = getelementptr inbounds nuw i8, ptr %46, i64 16
  %51 = icmp eq ptr %49, %50
  br i1 %51, label %_ZNKSt7__cxx1112basic_stringIcSt11char_traitsIcESaIcEE11_M_is_localEv.exit.thread.i.i.i.i.i, label %_ZNKSt7__cxx1112basic_stringIcSt11char_traitsIcESaIcEE11_M_is_localEv.exit.i.i.i.i.i

_ZNKSt7__cxx1112basic_stringIcSt11char_traitsIcESaIcEE11_M_is_localEv.exit.thread.i.i.i.i.i: ; preds = %48
  %52 = getelementptr inbounds nuw i8, ptr %46, i64 8
  %53 = load i64, ptr %52, align 8
  %54 = icmp ult i64 %53, 16
  call void @llvm.assume(i1 %54)
  br label %_ZNSt7__cxx1112basic_stringIcSt11char_traitsIcESaIcEED2Ev.exit.i.i.i

_ZNKSt7__cxx1112basic_stringIcSt11char_traitsIcESaIcEE11_M_is_localEv.exit.i.i.i.i.i: ; preds = %48
  call void @_ZdlPv(ptr noundef %49) #31
  br label %_ZNSt7__cxx1112basic_stringIcSt11char_traitsIcESaIcEED2Ev.exit.i.i.i

_ZNSt7__cxx1112basic_stringIcSt11char_traitsIcESaIcEED2Ev.exit.i.i.i: ; preds = %_ZNKSt7__cxx1112basic_stringIcSt11char_traitsIcESaIcEE11_M_is_localEv.exit.i.i.i.i.i, %_ZNKSt7__cxx1112basic_stringIcSt11char_traitsIcESaIcEE11_M_is_localEv.exit.thread.i.i.i.i.i
  call void @_ZdlPv(ptr noundef nonnull %46) #31
  br label %_ZN7testing15AssertionResultD2Ev.exit

55:                                               ; preds = %43
  %56 = landingpad { ptr, i32 }
          catch ptr null
  %57 = extractvalue { ptr, i32 } %56, 0
  call void @__clang_call_terminate(ptr %57) #28
  unreachable

_ZN7testing15AssertionResultD2Ev.exit:            ; preds = %.noexc.i.i8, %45, %_ZNSt7__cxx1112basic_stringIcSt11char_traitsIcESaIcEED2Ev.exit.i.i.i, %40
  call void @llvm.lifetime.end.p0(i64 16, ptr nonnull %3) #27
  call void @llvm.lifetime.end.p0(i64 4, ptr nonnull %2) #27
  ret void
}